target datalayout = "e-m:e-p270:32:32-p271:32:32-p272:64:64-i64:64-i128:128-f80:128-n8:16:32:64-S128"
target triple = "x86_64-pc-linux-gnu"

; Function Attrs: nounwind uwtable
define ptr @cl_sign_data(ptr noundef %0, ptr noundef %1, ptr noundef %2, ptr noundef %3, i32 noundef %4) #0 {
  %6 = alloca ptr, align 8
  %7 = alloca ptr, align 8
  %8 = alloca ptr, align 8
  %9 = alloca ptr, align 8
  %10 = alloca ptr, align 8
  %11 = alloca i32, align 4
  %12 = alloca ptr, align 8
  %13 = alloca ptr, align 8
  %14 = alloca i32, align 4
  %15 = alloca ptr, align 8
  %16 = alloca i32, align 4
  %17 = alloca ptr, align 8
  store ptr %0, ptr %7, align 8, !tbaa !24
  store ptr %1, ptr %8, align 8, !tbaa !3
  store ptr %2, ptr %9, align 8, !tbaa !3
  store ptr %3, ptr %10, align 8, !tbaa !11
  store i32 %4, ptr %11, align 4, !tbaa !13
  call void @llvm.lifetime.start.p0(i64 8, ptr %12) #8
  call void @llvm.lifetime.start.p0(i64 8, ptr %13) #8
  call void @llvm.lifetime.start.p0(i64 4, ptr %14) #8
  call void @llvm.lifetime.start.p0(i64 8, ptr %15) #8
  %18 = load ptr, ptr %8, align 8, !tbaa !3
  %19 = call ptr @EVP_get_digestbyname(ptr noundef %18)
  store ptr %19, ptr %13, align 8, !tbaa !15
  %20 = load ptr, ptr %13, align 8, !tbaa !15
  %21 = icmp ne ptr %20, null
  br i1 %21, label %23, label %22

22:                                               ; preds = %5
  store ptr null, ptr %6, align 8
  store i32 1, ptr %16, align 4
  br label %93

23:                                               ; preds = %5
  %24 = call ptr @EVP_MD_CTX_new()
  store ptr %24, ptr %12, align 8, !tbaa !17
  %25 = load ptr, ptr %12, align 8, !tbaa !17
  %26 = icmp ne ptr %25, null
  br i1 %26, label %28, label %27

27:                                               ; preds = %23
  store ptr null, ptr %6, align 8
  store i32 1, ptr %16, align 4
  br label %93

28:                                               ; preds = %23
  %29 = load ptr, ptr %7, align 8, !tbaa !24
  %30 = call i32 @EVP_PKEY_get_size(ptr noundef %29)
  %31 = sext i32 %30 to i64
  %32 = call noalias ptr @calloc(i64 noundef 1, i64 noundef %31) #10
  store ptr %32, ptr %15, align 8, !tbaa !3
  %33 = load ptr, ptr %15, align 8, !tbaa !3
  %34 = icmp ne ptr %33, null
  br i1 %34, label %37, label %35

35:                                               ; preds = %28
  %36 = load ptr, ptr %12, align 8, !tbaa !17
  call void @EVP_MD_CTX_free(ptr noundef %36)
  store ptr null, ptr %6, align 8
  store i32 1, ptr %16, align 4
  br label %93

37:                                               ; preds = %28
  %38 = load ptr, ptr %12, align 8, !tbaa !17
  call void @EVP_MD_CTX_set_flags(ptr noundef %38, i32 noundef 8)
  %39 = load ptr, ptr %12, align 8, !tbaa !17
  %40 = load ptr, ptr %13, align 8, !tbaa !15
  %41 = call i32 @EVP_DigestInit_ex(ptr noundef %39, ptr noundef %40, ptr noundef null)
  %42 = icmp ne i32 %41, 0
  br i1 %42, label %46, label %43

43:                                               ; preds = %37
  %44 = load ptr, ptr %15, align 8, !tbaa !3
  call void @free(ptr noundef %44) #8
  %45 = load ptr, ptr %12, align 8, !tbaa !17
  call void @EVP_MD_CTX_free(ptr noundef %45)
  store ptr null, ptr %6, align 8
  store i32 1, ptr %16, align 4
  br label %93

46:                                               ; preds = %37
  %47 = load ptr, ptr %12, align 8, !tbaa !17
  %48 = load ptr, ptr %9, align 8, !tbaa !3
  %49 = load ptr, ptr %13, align 8, !tbaa !15
  %50 = call i32 @EVP_MD_get_size(ptr noundef %49)
  %51 = sext i32 %50 to i64
  %52 = call i32 @EVP_DigestUpdate(ptr noundef %47, ptr noundef %48, i64 noundef %51)
  %53 = icmp ne i32 %52, 0
  br i1 %53, label %57, label %54

54:                                               ; preds = %46
  %55 = load ptr, ptr %15, align 8, !tbaa !3
  call void @free(ptr noundef %55) #8
  %56 = load ptr, ptr %12, align 8, !tbaa !17
  call void @EVP_MD_CTX_free(ptr noundef %56)
  store ptr null, ptr %6, align 8
  store i32 1, ptr %16, align 4
  br label %93

57:                                               ; preds = %46
  %58 = load ptr, ptr %12, align 8, !tbaa !17
  %59 = load ptr, ptr %15, align 8, !tbaa !3
  %60 = load ptr, ptr %7, align 8, !tbaa !24
  %61 = call i32 @EVP_SignFinal(ptr noundef %58, ptr noundef %59, ptr noundef %14, ptr noundef %60)
  %62 = icmp ne i32 %61, 0
  br i1 %62, label %66, label %63

63:                                               ; preds = %57
  %64 = load ptr, ptr %15, align 8, !tbaa !3
  call void @free(ptr noundef %64) #8
  %65 = load ptr, ptr %12, align 8, !tbaa !17
  call void @EVP_MD_CTX_free(ptr noundef %65)
  store ptr null, ptr %6, align 8
  store i32 1, ptr %16, align 4
  br label %93

66:                                               ; preds = %57
  %67 = load i32, ptr %11, align 4, !tbaa !13
  %68 = icmp ne i32 %67, 0
  br i1 %68, label %69, label %88

69:                                               ; preds = %66
  call void @llvm.lifetime.start.p0(i64 8, ptr %17) #8
  %70 = load ptr, ptr %15, align 8, !tbaa !3
  %71 = load i32, ptr %14, align 4, !tbaa !13
  %72 = zext i32 %71 to i64
  %73 = call ptr @cl_base64_encode(ptr noundef %70, i64 noundef %72)
  store ptr %73, ptr %17, align 8, !tbaa !3
  %74 = load ptr, ptr %17, align 8, !tbaa !3
  %75 = icmp ne ptr %74, null
  br i1 %75, label %79, label %76

76:                                               ; preds = %69
  %77 = load ptr, ptr %15, align 8, !tbaa !3
  call void @free(ptr noundef %77) #8
  %78 = load ptr, ptr %12, align 8, !tbaa !17
  call void @EVP_MD_CTX_free(ptr noundef %78)
  store ptr null, ptr %6, align 8
  store i32 1, ptr %16, align 4
  br label %85

79:                                               ; preds = %69
  %80 = load ptr, ptr %15, align 8, !tbaa !3
  call void @free(ptr noundef %80) #8
  %81 = load ptr, ptr %17, align 8, !tbaa !3
  store ptr %81, ptr %15, align 8, !tbaa !3
  %82 = load ptr, ptr %17, align 8, !tbaa !3
  %83 = call i64 @strlen(ptr noundef %82) #11
  %84 = trunc i64 %83 to i32
  store i32 %84, ptr %14, align 4, !tbaa !13
  store i32 0, ptr %16, align 4
  br label %85

85:                                               ; preds = %79, %76
  call void @llvm.lifetime.end.p0(i64 8, ptr %17) #8
  %86 = load i32, ptr %16, align 4
  switch i32 %86, label %93 [
    i32 0, label %87
  ]

87:                                               ; preds = %85
  br label %88

88:                                               ; preds = %87, %66
  %89 = load i32, ptr %14, align 4, !tbaa !13
  %90 = load ptr, ptr %10, align 8, !tbaa !11
  store i32 %89, ptr %90, align 4, !tbaa !13
  %91 = load ptr, ptr %12, align 8, !tbaa !17
  call void @EVP_MD_CTX_free(ptr noundef %91)
  %92 = load ptr, ptr %15, align 8, !tbaa !3
  store ptr %92, ptr %6, align 8
  store i32 1, ptr %16, align 4
  br label %93

93:                                               ; preds = %88, %85, %63, %54, %43, %35, %27, %22
  call void @llvm.lifetime.end.p0(i64 8, ptr %15) #8
  call void @llvm.lifetime.end.p0(i64 4, ptr %14) #8
  call void @llvm.lifetime.end.p0(i64 8, ptr %13) #8
  call void @llvm.lifetime.end.p0(i64 8, ptr %12) #8
  %94 = load ptr, ptr %6, align 8
  ret ptr %94
}