; Function Attrs: nounwind uwtable
define ptr @cl_sign_data(ptr noundef %0, ptr noundef %1, ptr noundef %2, ptr noundef writeonly captures(none) %3, i32 noundef %4) local_unnamed_addr #1 {
  %6 = alloca i32, align 4
  call void @llvm.lifetime.start.p0(i64 4, ptr nonnull %6) #12
  %7 = tail call ptr @EVP_get_digestbyname(ptr noundef %1) #12
  %.not = icmp eq ptr %7, null
  br i1 %.not, label %35, label %8

8:                                                ; preds = %5
  %9 = tail call ptr @EVP_MD_CTX_new() #12
  %.not40 = icmp eq ptr %9, null
  br i1 %.not40, label %35, label %10

10:                                               ; preds = %8
  %11 = tail call i32 @EVP_PKEY_get_size(ptr noundef %0) #12
  %12 = sext i32 %11 to i64
  %13 = tail call noalias ptr @calloc(i64 noundef 1, i64 noundef %12) #14
  %.not41 = icmp eq ptr %13, null
  br i1 %.not41, label %14, label %15

14:                                               ; preds = %10
  tail call void @EVP_MD_CTX_free(ptr noundef nonnull %9) #12
  br label %35

15:                                               ; preds = %10
  tail call void @EVP_MD_CTX_set_flags(ptr noundef nonnull %9, i32 noundef 8) #12
  %16 = tail call i32 @EVP_DigestInit_ex(ptr noundef nonnull %9, ptr noundef nonnull %7, ptr noundef null) #12
  %.not42 = icmp eq i32 %16, 0
  br i1 %.not42, label %17, label %18

17:                                               ; preds = %15
  tail call void @free(ptr noundef nonnull %13) #12
  tail call void @EVP_MD_CTX_free(ptr noundef nonnull %9) #12
  br label %35

18:                                               ; preds = %15
  %19 = tail call i32 @EVP_MD_get_size(ptr noundef nonnull %7) #12
  %20 = sext i32 %19 to i64
  %21 = tail call i32 @EVP_DigestUpdate(ptr noundef nonnull %9, ptr noundef %2, i64 noundef %20) #12
  %.not43 = icmp eq i32 %21, 0
  br i1 %.not43, label %22, label %23

22:                                               ; preds = %18
  tail call void @free(ptr noundef nonnull %13) #12
  tail call void @EVP_MD_CTX_free(ptr noundef nonnull %9) #12
  br label %35

23:                                               ; preds = %18
  %24 = call i32 @EVP_SignFinal(ptr noundef nonnull %9, ptr noundef nonnull %13, ptr noundef nonnull %6, ptr noundef %0) #12
  %.not44 = icmp eq i32 %24, 0
  br i1 %.not44, label %25, label %26

25:                                               ; preds = %23
  call void @free(ptr noundef nonnull %13) #12
  call void @EVP_MD_CTX_free(ptr noundef nonnull %9) #12
  br label %35

26:                                               ; preds = %23
  %.not45 = icmp eq i32 %4, 0
  %.pre = load i32, ptr %6, align 4, !tbaa !3
  br i1 %.not45, label %33, label %27

27:                                               ; preds = %26
  %28 = zext i32 %.pre to i64
  %29 = call ptr @cl_base64_encode(ptr noundef nonnull %13, i64 noundef %28) #12
  %.not46.not = icmp eq ptr %29, null
  call void @free(ptr noundef nonnull %13) #12
  br i1 %.not46.not, label %.thread, label %30

.thread:                                          ; preds = %27
  call void @EVP_MD_CTX_free(ptr noundef nonnull %9) #12
  br label %35

30:                                               ; preds = %27
  %31 = call i64 @strlen(ptr noundef nonnull dereferenceable(1) %29) #15
  %32 = trunc i64 %31 to i32
  store i32 %32, ptr %6, align 4, !tbaa !3
  br label %33

33:                                               ; preds = %30, %26
  %34 = phi i32 [ %32, %30 ], [ %.pre, %26 ]
  %.034 = phi ptr [ %29, %30 ], [ %13, %26 ]
  store i32 %34, ptr %3, align 4, !tbaa !3
  call void @EVP_MD_CTX_free(ptr noundef nonnull %9) #12
  br label %35

35:                                               ; preds = %.thread, %8, %5, %33, %25, %22, %17, %14
  %.0 = phi ptr [ %.034, %33 ], [ null, %25 ], [ null, %22 ], [ null, %17 ], [ null, %14 ], [ null, %5 ], [ null, %8 ], [ null, %.thread ]
  call void @llvm.lifetime.end.p0(i64 4, ptr nonnull %6) #12
  ret ptr %.0
}